target datalayout = "e-m:e-p270:32:32-p271:32:32-p272:64:64-i64:64-i128:128-f80:128-n8:16:32:64-S128"
target triple = "x86_64-unknown-linux-gnu"

; Function Attrs: mustprogress nounwind uwtable
define internal noundef i32 @_ZN6icu_75L12pinCodePointERi(ptr noundef nonnull align 4 dereferenceable(4) %c) #0 {
entry:
  %c.addr = alloca ptr, align 8
  store ptr %c, ptr %c.addr, align 8
  %0 = load ptr, ptr %c.addr, align 8
  %1 = load i32, ptr %0, align 4
  %cmp = icmp slt i32 %1, 0
  br i1 %cmp, label %if.then, label %if.else

if.then:                                          ; preds = %entry
  %2 = load ptr, ptr %c.addr, align 8
  store i32 0, ptr %2, align 4
  br label %if.end3

if.else:                                          ; preds = %entry
  %3 = load ptr, ptr %c.addr, align 8
  %4 = load i32, ptr %3, align 4
  %cmp1 = icmp sgt i32 %4, 1114111
  br i1 %cmp1, label %if.then2, label %if.end

if.then2:                                         ; preds = %if.else
  %5 = load ptr, ptr %c.addr, align 8
  store i32 1114111, ptr %5, align 4
  br label %if.end

if.end:                                           ; preds = %if.then2, %if.else
  br label %if.end3

if.end3:                                          ; preds = %if.end, %if.then
  %6 = load ptr, ptr %c.addr, align 8
  %7 = load i32, ptr %6, align 4
  ret i32 %7
}

; Function Attrs: mustprogress uwtable
define noundef nonnull align 8 dereferenceable(200) ptr @_ZN6icu_7510UnicodeSet6removeEii(ptr noundef nonnull align 8 dereferenceable(200) %this, i32 noundef %start, i32 noundef %end) unnamed_addr #1 align 2 {
entry:
  %this.addr = alloca ptr, align 8
  %start.addr = alloca i32, align 4
  %end.addr = alloca i32, align 4
  %range = alloca [3 x i32], align 4
  store ptr %this, ptr %this.addr, align 8
  store i32 %start, ptr %start.addr, align 4
  store i32 %end, ptr %end.addr, align 4
  %this1 = load ptr, ptr %this.addr, align 8
  %call = call noundef i32 @_ZN6icu_75L12pinCodePointERi(ptr noundef nonnull align 4 dereferenceable(4) %start.addr)
  %call2 = call noundef i32 @_ZN6icu_75L12pinCodePointERi(ptr noundef nonnull align 4 dereferenceable(4) %end.addr)
  %cmp = icmp sle i32 %call, %call2
  br i1 %cmp, label %if.then, label %if.end

if.then:                                          ; preds = %entry
  %arrayinit.begin = getelementptr inbounds [3 x i32], ptr %range, i64 0, i64 0
  %0 = load i32, ptr %start.addr, align 4
  store i32 %0, ptr %arrayinit.begin, align 4
  %arrayinit.element = getelementptr inbounds i32, ptr %arrayinit.begin, i64 1
  %1 = load i32, ptr %end.addr, align 4
  %add = add nsw i32 %1, 1
  store i32 %add, ptr %arrayinit.element, align 4
  %arrayinit.element3 = getelementptr inbounds i32, ptr %arrayinit.element, i64 1
  store i32 1114112, ptr %arrayinit.element3, align 4
  %arraydecay = getelementptr inbounds [3 x i32], ptr %range, i64 0, i64 0
  call void @_ZN6icu_7510UnicodeSet6retainEPKiia(ptr noundef nonnull align 8 dereferenceable(200) %this1, ptr noundef %arraydecay, i32 noundef 2, i8 noundef signext 2)
  br label %if.end

if.end:                                           ; preds = %if.then, %entry
  ret ptr %this1
}

; Function Attrs: mustprogress uwtable
define noundef nonnull align 8 dereferenceable(200) ptr @_ZN6icu_7510UnicodeSet6removeEi(ptr noundef nonnull align 8 dereferenceable(200) %this, i32 noundef %c) #1 align 2 {
entry:
  %this.addr = alloca ptr, align 8
  %c.addr = alloca i32, align 4
  store ptr %this, ptr %this.addr, align 8
  store i32 %c, ptr %c.addr, align 4
  %this1 = load ptr, ptr %this.addr, align 8
  %0 = load i32, ptr %c.addr, align 4
  %1 = load i32, ptr %c.addr, align 4
  %call = call noundef nonnull align 8 dereferenceable(200) ptr @_ZN6icu_7510UnicodeSet6removeEii(ptr noundef nonnull align 8 dereferenceable(200) %this1, i32 noundef %0, i32 noundef %1)
  ret ptr %call
}